; Function Attrs: mustprogress nofree nounwind willreturn memory(read, inaccessiblemem: none) uwtable
define dso_local noundef zeroext i1 @_ZNK7doctest16SubcaseSignatureeqERKS0_(ptr noundef nonnull readonly align 8 captures(none) dereferenceable(36) %0, ptr noundef nonnull readonly align 8 captures(none) dereferenceable(36) %1) local_unnamed_addr #21 align 2 {
  %3 = getelementptr inbounds nuw i8, ptr %0, i64 32
  %4 = load i32, ptr %3, align 8, !tbaa !81
  %5 = getelementptr inbounds nuw i8, ptr %1, i64 32
  %6 = load i32, ptr %5, align 8, !tbaa !81
  %7 = icmp eq i32 %4, %6
  br i1 %7, label %8, label %26

8:                                                ; preds = %2
  %9 = getelementptr inbounds nuw i8, ptr %0, i64 24
  %10 = load ptr, ptr %9, align 8, !tbaa !83
  %11 = getelementptr inbounds nuw i8, ptr %1, i64 24
  %12 = load ptr, ptr %11, align 8, !tbaa !83
  %13 = tail call i32 @strcmp(ptr noundef nonnull dereferenceable(1) %10, ptr noundef nonnull dereferenceable(1) %12) #52
  %14 = icmp eq i32 %13, 0
  br i1 %14, label %15, label %26

15:                                               ; preds = %8
  %16 = getelementptr inbounds nuw i8, ptr %1, i64 23
  %17 = load i8, ptr %16, align 1, !tbaa !38
  %18 = load ptr, ptr %1, align 8
  %19 = icmp slt i8 %17, 0
  %.0.i.i.i.i = select i1 %19, ptr %18, ptr %1
  %20 = getelementptr inbounds nuw i8, ptr %0, i64 23
  %21 = load i8, ptr %20, align 1, !tbaa !38
  %22 = load ptr, ptr %0, align 8
  %23 = icmp slt i8 %21, 0
  %.0.i.i.i.i.i = select i1 %23, ptr %22, ptr %0
  %24 = tail call i32 @strcmp(ptr noundef nonnull dereferenceable(1) %.0.i.i.i.i.i, ptr noundef nonnull readonly dereferenceable(1) %.0.i.i.i.i) #52
  %25 = icmp eq i32 %24, 0
  br label %26

26:                                               ; preds = %15, %8, %2
  %27 = phi i1 [ false, %8 ], [ false, %2 ], [ %25, %15 ]
  ret i1 %27
}